target datalayout = "e-m:e-p270:32:32-p271:32:32-p272:64:64-i64:64-i128:128-f80:128-n8:16:32:64-S128"
target triple = "x86_64-unknown-linux-gnu"

%"class.icu_75::Norms::Enumerator" = type { ptr, ptr }
%"class.icu_75::UObject" = type { ptr }
%"struct.icu_75::Norm" = type { ptr, ptr, i32, i32, i32, ptr, i8, i8, i8, i8, i8, i8, i32, i32, ptr }
%"struct.icu_75::CompositionPair" = type { i32, i32 }
%"class.icu_75::UVector32" = type { %"class.icu_75::UObject", i32, i32, i32, ptr }

@stderr = external global ptr, align 8
@.str.2 = private unnamed_addr constant [96 x i8] c"gennorm2 error: U+%04lX combines-forward and has ccc!=0, not possible in Unicode normalization\0A\00", align 1

; Function Attrs: mustprogress nounwind uwtable
define linkonce_odr dso_local noundef ptr @_ZNK6icu_759UVector329getBufferEv(ptr noundef nonnull align 8 dereferenceable(32) %this) #1 comdat align 2 {
entry:
  %this.addr = alloca ptr, align 8
  store ptr %this, ptr %this.addr, align 8
  %this1 = load ptr, ptr %this.addr, align 8
  %elements = getelementptr inbounds %"class.icu_75::UVector32", ptr %this1, i32 0, i32 4
  %0 = load ptr, ptr %elements, align 8
  ret ptr %0
}

; Function Attrs: mustprogress nounwind uwtable
define linkonce_odr dso_local noundef i32 @_ZNK6icu_759UVector324sizeEv(ptr noundef nonnull align 8 dereferenceable(32) %this) #1 comdat align 2 {
entry:
  %this.addr = alloca ptr, align 8
  store ptr %this, ptr %this.addr, align 8
  %this1 = load ptr, ptr %this.addr, align 8
  %count = getelementptr inbounds %"class.icu_75::UVector32", ptr %this1, i32 0, i32 1
  %0 = load i32, ptr %count, align 8
  ret i32 %0
}

; Function Attrs: mustprogress uwtable
define linkonce_odr dso_local noundef nonnull align 8 dereferenceable(64) ptr @_ZN6icu_7513UnicodeString6appendEDs(ptr noundef nonnull align 8 dereferenceable(64) %this, i16 noundef zeroext %srcChar) #0 comdat align 2 {
entry:
  %this.addr = alloca ptr, align 8
  %srcChar.addr = alloca i16, align 2
  store ptr %this, ptr %this.addr, align 8
  store i16 %srcChar, ptr %srcChar.addr, align 2
  %this1 = load ptr, ptr %this.addr, align 8
  %call = call noundef nonnull align 8 dereferenceable(64) ptr @_ZN6icu_7513UnicodeString8doAppendEPKDsii(ptr noundef nonnull align 8 dereferenceable(64) %this1, ptr noundef %srcChar.addr, i32 noundef 0, i32 noundef 1)
  ret ptr %call
}

; Function Attrs: mustprogress uwtable
define linkonce_odr dso_local noundef ptr @_ZNK6icu_754Norm19getCompositionPairsERi(ptr noundef nonnull align 8 dereferenceable(64) %this, ptr noundef nonnull align 4 dereferenceable(4) %length) #0 comdat align 2 {
entry:
  %retval = alloca ptr, align 8
  %this.addr = alloca ptr, align 8
  %length.addr = alloca ptr, align 8
  store ptr %this, ptr %this.addr, align 8
  store ptr %length, ptr %length.addr, align 8
  %this1 = load ptr, ptr %this.addr, align 8
  %compositions = getelementptr inbounds %"struct.icu_75::Norm", ptr %this1, i32 0, i32 5
  %0 = load ptr, ptr %compositions, align 8
  %cmp = icmp eq ptr %0, null
  br i1 %cmp, label %if.then, label %if.else

if.then:                                          ; preds = %entry
  %1 = load ptr, ptr %length.addr, align 8
  store i32 0, ptr %1, align 4
  store ptr null, ptr %retval, align 8
  br label %return

if.else:                                          ; preds = %entry
  %compositions2 = getelementptr inbounds %"struct.icu_75::Norm", ptr %this1, i32 0, i32 5
  %2 = load ptr, ptr %compositions2, align 8
  %call = call noundef i32 @_ZNK6icu_759UVector324sizeEv(ptr noundef nonnull align 8 dereferenceable(32) %2)
  %div = sdiv i32 %call, 2
  %3 = load ptr, ptr %length.addr, align 8
  store i32 %div, ptr %3, align 4
  %compositions3 = getelementptr inbounds %"struct.icu_75::Norm", ptr %this1, i32 0, i32 5
  %4 = load ptr, ptr %compositions3, align 8
  %call4 = call noundef ptr @_ZNK6icu_759UVector329getBufferEv(ptr noundef nonnull align 8 dereferenceable(32) %4)
  store ptr %call4, ptr %retval, align 8
  br label %return

return:                                           ; preds = %if.else, %if.then
  %5 = load ptr, ptr %retval, align 8
  ret ptr %5
}

; Function Attrs: mustprogress uwtable
define dso_local void @_ZN6icu_759ExtraData17writeCompositionsEiRKNS_4NormERNS_13UnicodeStringE(ptr noundef nonnull align 8 dereferenceable(888) %this, i32 noundef %c, ptr noundef nonnull align 8 dereferenceable(64) %norm, ptr noundef nonnull align 8 dereferenceable(64) %dataString) #0 align 2 {
entry:
  %this.addr = alloca ptr, align 8
  %c.addr = alloca i32, align 4
  %norm.addr = alloca ptr, align 8
  %dataString.addr = alloca ptr, align 8
  %length = alloca i32, align 4
  %pairs = alloca ptr, align 8
  %i = alloca i32, align 4
  %pair = alloca ptr, align 8
  %compositeAndFwd = alloca i32, align 4
  %firstUnit = alloca i32, align 4
  %secondUnit = alloca i32, align 4
  %thirdUnit = alloca i32, align 4
  store ptr %this, ptr %this.addr, align 8
  store i32 %c, ptr %c.addr, align 4
  store ptr %norm, ptr %norm.addr, align 8
  store ptr %dataString, ptr %dataString.addr, align 8
  %this1 = load ptr, ptr %this.addr, align 8
  %0 = load ptr, ptr %norm.addr, align 8
  %cc = getelementptr inbounds %"struct.icu_75::Norm", ptr %0, i32 0, i32 6
  %1 = load i8, ptr %cc, align 8
  %conv = zext i8 %1 to i32
  %cmp = icmp ne i32 %conv, 0
  br i1 %cmp, label %if.then, label %if.end

if.then:                                          ; preds = %entry
  %2 = load ptr, ptr @stderr, align 8
  %3 = load i32, ptr %c.addr, align 4
  %conv2 = sext i32 %3 to i64
  %call = call i32 (ptr, ptr, ...) @fprintf(ptr noundef %2, ptr noundef @.str.2, i64 noundef %conv2)
  call void @exit(i32 noundef 3) #8
  unreachable

if.end:                                           ; preds = %entry
  %4 = load ptr, ptr %norm.addr, align 8
  %call3 = call noundef ptr @_ZNK6icu_754Norm19getCompositionPairsERi(ptr noundef nonnull align 8 dereferenceable(64) %4, ptr noundef nonnull align 4 dereferenceable(4) %length)
  store ptr %call3, ptr %pairs, align 8
  store i32 0, ptr %i, align 4
  br label %for.cond

for.cond:                                         ; preds = %for.inc, %if.end
  %5 = load i32, ptr %i, align 4
  %6 = load i32, ptr %length, align 4
  %cmp4 = icmp slt i32 %5, %6
  br i1 %cmp4, label %for.body, label %for.end

for.body:                                         ; preds = %for.cond
  %7 = load ptr, ptr %pairs, align 8
  %8 = load i32, ptr %i, align 4
  %idxprom = sext i32 %8 to i64
  %arrayidx = getelementptr inbounds %"struct.icu_75::CompositionPair", ptr %7, i64 %idxprom
  store ptr %arrayidx, ptr %pair, align 8
  %9 = load ptr, ptr %pair, align 8
  %composite = getelementptr inbounds %"struct.icu_75::CompositionPair", ptr %9, i32 0, i32 1
  %10 = load i32, ptr %composite, align 4
  %shl = shl i32 %10, 1
  store i32 %shl, ptr %compositeAndFwd, align 4
  %norms = getelementptr inbounds %"class.icu_75::Norms::Enumerator", ptr %this1, i32 0, i32 1
  %11 = load ptr, ptr %norms, align 8
  %12 = load ptr, ptr %pair, align 8
  %composite5 = getelementptr inbounds %"struct.icu_75::CompositionPair", ptr %12, i32 0, i32 1
  %13 = load i32, ptr %composite5, align 4
  %call6 = call noundef nonnull align 8 dereferenceable(64) ptr @_ZNK6icu_755Norms10getNormRefEi(ptr noundef nonnull align 8 dereferenceable(424) %11, i32 noundef %13)
  %compositions = getelementptr inbounds %"struct.icu_75::Norm", ptr %call6, i32 0, i32 5
  %14 = load ptr, ptr %compositions, align 8
  %cmp7 = icmp ne ptr %14, null
  br i1 %cmp7, label %if.then8, label %if.end9

if.then8:                                         ; preds = %for.body
  %15 = load i32, ptr %compositeAndFwd, align 4
  %or = or i32 %15, 1
  store i32 %or, ptr %compositeAndFwd, align 4
  br label %if.end9

if.end9:                                          ; preds = %if.then8, %for.body
  %16 = load ptr, ptr %pair, align 8
  %trail = getelementptr inbounds %"struct.icu_75::CompositionPair", ptr %16, i32 0, i32 0
  %17 = load i32, ptr %trail, align 4
  %cmp10 = icmp slt i32 %17, 13312
  br i1 %cmp10, label %if.then11, label %if.else20

if.then11:                                        ; preds = %if.end9
  %18 = load i32, ptr %compositeAndFwd, align 4
  %cmp12 = icmp sle i32 %18, 65535
  br i1 %cmp12, label %if.then13, label %if.else

if.then13:                                        ; preds = %if.then11
  %19 = load ptr, ptr %pair, align 8
  %trail14 = getelementptr inbounds %"struct.icu_75::CompositionPair", ptr %19, i32 0, i32 0
  %20 = load i32, ptr %trail14, align 4
  %shl15 = shl i32 %20, 1
  store i32 %shl15, ptr %firstUnit, align 4
  %21 = load i32, ptr %compositeAndFwd, align 4
  store i32 %21, ptr %secondUnit, align 4
  store i32 -1, ptr %thirdUnit, align 4
  br label %if.end19

if.else:                                          ; preds = %if.then11
  %22 = load ptr, ptr %pair, align 8
  %trail16 = getelementptr inbounds %"struct.icu_75::CompositionPair", ptr %22, i32 0, i32 0
  %23 = load i32, ptr %trail16, align 4
  %shl17 = shl i32 %23, 1
  %or18 = or i32 %shl17, 1
  store i32 %or18, ptr %firstUnit, align 4
  %24 = load i32, ptr %compositeAndFwd, align 4
  %shr = ashr i32 %24, 16
  store i32 %shr, ptr %secondUnit, align 4
  %25 = load i32, ptr %compositeAndFwd, align 4
  store i32 %25, ptr %thirdUnit, align 4
  br label %if.end19

if.end19:                                         ; preds = %if.else, %if.then13
  br label %if.end28

if.else20:                                        ; preds = %if.end9
  %26 = load ptr, ptr %pair, align 8
  %trail21 = getelementptr inbounds %"struct.icu_75::CompositionPair", ptr %26, i32 0, i32 0
  %27 = load i32, ptr %trail21, align 4
  %shr22 = ashr i32 %27, 9
  %add = add nsw i32 13312, %shr22
  %or23 = or i32 %add, 1
  store i32 %or23, ptr %firstUnit, align 4
  %28 = load ptr, ptr %pair, align 8
  %trail24 = getelementptr inbounds %"struct.icu_75::CompositionPair", ptr %28, i32 0, i32 0
  %29 = load i32, ptr %trail24, align 4
  %shl25 = shl i32 %29, 6
  %30 = load i32, ptr %compositeAndFwd, align 4
  %shr26 = ashr i32 %30, 16
  %or27 = or i32 %shl25, %shr26
  store i32 %or27, ptr %secondUnit, align 4
  %31 = load i32, ptr %compositeAndFwd, align 4
  store i32 %31, ptr %thirdUnit, align 4
  br label %if.end28

if.end28:                                         ; preds = %if.else20, %if.end19
  %32 = load i32, ptr %i, align 4
  %33 = load i32, ptr %length, align 4
  %sub = sub nsw i32 %33, 1
  %cmp29 = icmp eq i32 %32, %sub
  br i1 %cmp29, label %if.then30, label %if.end32

if.then30:                                        ; preds = %if.end28
  %34 = load i32, ptr %firstUnit, align 4
  %or31 = or i32 %34, 32768
  store i32 %or31, ptr %firstUnit, align 4
  br label %if.end32

if.end32:                                         ; preds = %if.then30, %if.end28
  %35 = load ptr, ptr %dataString.addr, align 8
  %36 = load i32, ptr %firstUnit, align 4
  %conv33 = trunc i32 %36 to i16
  %call34 = call noundef nonnull align 8 dereferenceable(64) ptr @_ZN6icu_7513UnicodeString6appendEDs(ptr noundef nonnull align 8 dereferenceable(64) %35, i16 noundef zeroext %conv33)
  %37 = load i32, ptr %secondUnit, align 4
  %conv35 = trunc i32 %37 to i16
  %call36 = call noundef nonnull align 8 dereferenceable(64) ptr @_ZN6icu_7513UnicodeString6appendEDs(ptr noundef nonnull align 8 dereferenceable(64) %call34, i16 noundef zeroext %conv35)
  %38 = load i32, ptr %thirdUnit, align 4
  %cmp37 = icmp sge i32 %38, 0
  br i1 %cmp37, label %if.then38, label %if.end41

if.then38:                                        ; preds = %if.end32
  %39 = load ptr, ptr %dataString.addr, align 8
  %40 = load i32, ptr %thirdUnit, align 4
  %conv39 = trunc i32 %40 to i16
  %call40 = call noundef nonnull align 8 dereferenceable(64) ptr @_ZN6icu_7513UnicodeString6appendEDs(ptr noundef nonnull align 8 dereferenceable(64) %39, i16 noundef zeroext %conv39)
  br label %if.end41

if.end41:                                         ; preds = %if.then38, %if.end32
  br label %for.inc

for.inc:                                          ; preds = %if.end41
  %41 = load i32, ptr %i, align 4
  %inc = add nsw i32 %41, 1
  store i32 %inc, ptr %i, align 4
  br label %for.cond, !llvm.loop !5

for.end:                                          ; preds = %for.cond
  ret void
}