; Function Attrs: mustprogress uwtable
define dso_local void @_ZN6icu_759ExtraData17writeCompositionsEiRKNS_4NormERNS_13UnicodeStringE(ptr nocapture noundef nonnull readonly align 8 dereferenceable(888) %this, i32 noundef %c, ptr nocapture noundef nonnull readonly align 8 dereferenceable(64) %norm, ptr noundef nonnull align 8 dereferenceable(64) %dataString) local_unnamed_addr #0 align 2 {
entry:
  %srcChar.addr.i23 = alloca i16, align 2
  %srcChar.addr.i21 = alloca i16, align 2
  %srcChar.addr.i = alloca i16, align 2
  %cc = getelementptr inbounds i8, ptr %norm, i64 40
  %0 = load i8, ptr %cc, align 8
  %cmp.not = icmp eq i8 %0, 0
  br i1 %cmp.not, label %if.end, label %if.then

if.then:                                          ; preds = %entry
  %1 = load ptr, ptr @stderr, align 8
  %conv2 = sext i32 %c to i64
  %call = tail call i32 (ptr, ptr, ...) @fprintf(ptr noundef %1, ptr noundef nonnull @.str.2, i64 noundef %conv2) #12
  tail call void @exit(i32 noundef 3) #11
  unreachable

if.end:                                           ; preds = %entry
  %compositions.i = getelementptr inbounds i8, ptr %norm, i64 32
  %2 = load ptr, ptr %compositions.i, align 8
  %cmp.i = icmp eq ptr %2, null
  br i1 %cmp.i, label %for.end, label %_ZNK6icu_754Norm19getCompositionPairsERi.exit

_ZNK6icu_754Norm19getCompositionPairsERi.exit:    ; preds = %if.end
  %count.i.i = getelementptr inbounds i8, ptr %2, i64 8
  %3 = load i32, ptr %count.i.i, align 8
  %elements.i.i = getelementptr inbounds i8, ptr %2, i64 24
  %4 = load ptr, ptr %elements.i.i, align 8
  %cmp426 = icmp sgt i32 %3, 1
  br i1 %cmp426, label %for.body.lr.ph, label %for.end

for.body.lr.ph:                                   ; preds = %_ZNK6icu_754Norm19getCompositionPairsERi.exit
  %div.i32 = lshr i32 %3, 1
  %norms = getelementptr inbounds i8, ptr %this, i64 8
  %sub = add nsw i32 %div.i32, -1
  %5 = zext nneg i32 %sub to i64
  %wide.trip.count = zext nneg i32 %div.i32 to i64
  br label %for.body

for.body:                                         ; preds = %for.body.lr.ph, %for.inc
  %indvars.iv = phi i64 [ 0, %for.body.lr.ph ], [ %indvars.iv.next, %for.inc ]
  %arrayidx = getelementptr inbounds %"struct.icu_75::CompositionPair", ptr %4, i64 %indvars.iv
  %composite = getelementptr inbounds i8, ptr %arrayidx, i64 4
  %6 = load i32, ptr %composite, align 4
  %shl = shl i32 %6, 1
  %7 = load ptr, ptr %norms, align 8
  %call6 = call noundef nonnull align 8 dereferenceable(64) ptr @_ZNK6icu_755Norms10getNormRefEi(ptr noundef nonnull align 8 dereferenceable(424) %7, i32 noundef %6)
  %compositions = getelementptr inbounds i8, ptr %call6, i64 32
  %8 = load ptr, ptr %compositions, align 8
  %cmp7.not = icmp ne ptr %8, null
  %or = zext i1 %cmp7.not to i32
  %spec.select = or disjoint i32 %shl, %or
  %9 = load i32, ptr %arrayidx, align 4
  %cmp10 = icmp slt i32 %9, 13312
  br i1 %cmp10, label %if.then11, label %if.else20

if.then11:                                        ; preds = %for.body
  %cmp12 = icmp slt i32 %spec.select, 65536
  %shl15 = shl i32 %9, 1
  br i1 %cmp12, label %if.end28, label %if.else

if.else:                                          ; preds = %if.then11
  %or18 = or disjoint i32 %shl15, 1
  %shr = lshr i32 %shl, 16
  br label %if.end28

if.else20:                                        ; preds = %for.body
  %shr22 = lshr i32 %9, 9
  %10 = or i32 %shr22, 1
  %or23 = add nuw nsw i32 %10, 13312
  %shl25 = shl i32 %9, 6
  %shr26 = ashr i32 %shl, 16
  %or27 = or i32 %shl25, %shr26
  br label %if.end28

if.end28:                                         ; preds = %if.then11, %if.else, %if.else20
  %firstUnit.0 = phi i32 [ %or18, %if.else ], [ %or23, %if.else20 ], [ %shl15, %if.then11 ]
  %secondUnit.0 = phi i32 [ %shr, %if.else ], [ %or27, %if.else20 ], [ %spec.select, %if.then11 ]
  %thirdUnit.0 = phi i32 [ %spec.select, %if.else ], [ %spec.select, %if.else20 ], [ -1, %if.then11 ]
  %cmp29 = icmp eq i64 %indvars.iv, %5
  %or31 = or i32 %firstUnit.0, 32768
  %spec.select20 = select i1 %cmp29, i32 %or31, i32 %firstUnit.0
  %conv33 = trunc i32 %spec.select20 to i16
  call void @llvm.lifetime.start.p0(i64 2, ptr nonnull %srcChar.addr.i)
  store i16 %conv33, ptr %srcChar.addr.i, align 2
  %call.i = call noundef nonnull align 8 dereferenceable(64) ptr @_ZN6icu_7513UnicodeString8doAppendEPKDsii(ptr noundef nonnull align 8 dereferenceable(64) %dataString, ptr noundef nonnull %srcChar.addr.i, i32 noundef 0, i32 noundef 1)
  call void @llvm.lifetime.end.p0(i64 2, ptr nonnull %srcChar.addr.i)
  %conv35 = trunc i32 %secondUnit.0 to i16
  call void @llvm.lifetime.start.p0(i64 2, ptr nonnull %srcChar.addr.i21)
  store i16 %conv35, ptr %srcChar.addr.i21, align 2
  %call.i22 = call noundef nonnull align 8 dereferenceable(64) ptr @_ZN6icu_7513UnicodeString8doAppendEPKDsii(ptr noundef nonnull align 8 dereferenceable(64) %call.i, ptr noundef nonnull %srcChar.addr.i21, i32 noundef 0, i32 noundef 1)
  call void @llvm.lifetime.end.p0(i64 2, ptr nonnull %srcChar.addr.i21)
  %cmp37 = icmp sgt i32 %thirdUnit.0, -1
  br i1 %cmp37, label %if.then38, label %for.inc

if.then38:                                        ; preds = %if.end28
  %conv39 = trunc i32 %thirdUnit.0 to i16
  call void @llvm.lifetime.start.p0(i64 2, ptr nonnull %srcChar.addr.i23)
  store i16 %conv39, ptr %srcChar.addr.i23, align 2
  %call.i24 = call noundef nonnull align 8 dereferenceable(64) ptr @_ZN6icu_7513UnicodeString8doAppendEPKDsii(ptr noundef nonnull align 8 dereferenceable(64) %dataString, ptr noundef nonnull %srcChar.addr.i23, i32 noundef 0, i32 noundef 1)
  call void @llvm.lifetime.end.p0(i64 2, ptr nonnull %srcChar.addr.i23)
  br label %for.inc

for.inc:                                          ; preds = %if.end28, %if.then38
  %indvars.iv.next = add nuw nsw i64 %indvars.iv, 1
  %exitcond.not = icmp eq i64 %indvars.iv.next, %wide.trip.count
  br i1 %exitcond.not, label %for.end, label %for.body, !llvm.loop !5

for.end:                                          ; preds = %for.inc, %if.end, %_ZNK6icu_754Norm19getCompositionPairsERi.exit
  ret void
}